ccopy_reg
_reconstructor
p0
(cdedupe.datamodel
DataModel
p1
c__builtin__
object
p2
Ntp3
Rp4
(dp5
S'primary_fields'
p6
(lp7
g0
(cdedupe.variables.string
StringType
p8
g2
Ntp9
Rp10
(dp11
S'predicates'
p12
(lp13
g0
(cdedupe.predicates
StringPredicate
p14
g2
Ntp15
Rp16
(dp17
S'_cached_hash'
p18
I-1388903424
sS'__name__'
p19
S'(wholeFieldPredicate, FirstName)'
p20
sS'func'
p21
cdedupe.predicates
wholeFieldPredicate
p22
sS'field'
p23
S'FirstName'
p24
sbag0
(g14
g2
Ntp25
Rp26
(dp27
g18
I1447866754
sg19
S'(firstTokenPredicate, FirstName)'
p28
sg21
cdedupe.predicates
firstTokenPredicate
p29
sg23
g24
sbag0
(g14
g2
Ntp30
Rp31
(dp32
g18
I1522963727
sg19
S'(commonIntegerPredicate, FirstName)'
p33
sg21
cdedupe.predicates
commonIntegerPredicate
p34
sg23
g24
sbag0
(g14
g2
Ntp35
Rp36
(dp37
g18
I-1619505870
sg19
S'(nearIntegersPredicate, FirstName)'
p38
sg21
cdedupe.predicates
nearIntegersPredicate
p39
sg23
g24
sbag0
(g14
g2
Ntp40
Rp41
(dp42
g18
I-611622141
sg19
S'(firstIntegerPredicate, FirstName)'
p43
sg21
cdedupe.predicates
firstIntegerPredicate
p44
sg23
g24
sbag0
(g14
g2
Ntp45
Rp46
(dp47
g18
I-652487533
sg19
S'(sameThreeCharStartPredicate, FirstName)'
p48
sg21
cdedupe.predicates
sameThreeCharStartPredicate
p49
sg23
g24
sbag0
(g14
g2
Ntp50
Rp51
(dp52
g18
I589983080
sg19
S'(sameFiveCharStartPredicate, FirstName)'
p53
sg21
cdedupe.predicates
sameFiveCharStartPredicate
p54
sg23
g24
sbag0
(g14
g2
Ntp55
Rp56
(dp57
g18
I1929762432
sg19
S'(sameSevenCharStartPredicate, FirstName)'
p58
sg21
cdedupe.predicates
sameSevenCharStartPredicate
p59
sg23
g24
sbag0
(g14
g2
Ntp60
Rp61
(dp62
g18
I1249306927
sg19
S'(commonTwoTokens, FirstName)'
p63
sg21
cdedupe.predicates
commonTwoTokens
p64
sg23
g24
sbag0
(g14
g2
Ntp65
Rp66
(dp67
g18
I-1561378217
sg19
S'(commonThreeTokens, FirstName)'
p68
sg21
cdedupe.predicates
commonThreeTokens
p69
sg23
g24
sbag0
(g14
g2
Ntp70
Rp71
(dp72
g18
I62085130
sg19
S'(fingerprint, FirstName)'
p73
sg21
cdedupe.predicates
fingerprint
p74
sg23
g24
sbag0
(g14
g2
Ntp75
Rp76
(dp77
g18
I454797874
sg19
S'(oneGramFingerprint, FirstName)'
p78
sg21
cdedupe.predicates
oneGramFingerprint
p79
sg23
g24
sbag0
(g14
g2
Ntp80
Rp81
(dp82
g18
I-2013089316
sg19
S'(twoGramFingerprint, FirstName)'
p83
sg21
cdedupe.predicates
twoGramFingerprint
p84
sg23
g24
sbag0
(g14
g2
Ntp85
Rp86
(dp87
g18
I895401198
sg19
S'(sortedAcronym, FirstName)'
p88
sg21
cdedupe.predicates
sortedAcronym
p89
sg23
g24
sbag0
(g14
g2
Ntp90
Rp91
(dp92
g18
I355095663
sg19
S'(commonFourGram, FirstName)'
p93
sg21
cdedupe.predicates
commonFourGram
p94
sg23
g24
sbag0
(g14
g2
Ntp95
Rp96
(dp97
g18
I-1849775512
sg19
S'(commonSixGram, FirstName)'
p98
sg21
cdedupe.predicates
commonSixGram
p99
sg23
g24
sbag0
(g14
g2
Ntp100
Rp101
(dp102
g18
I23809922
sg19
S'(tokenFieldPredicate, FirstName)'
p103
sg21
cdedupe.predicates
tokenFieldPredicate
p104
sg23
g24
sbag0
(g14
g2
Ntp105
Rp106
(dp107
g18
I-1706508568
sg19
S'(suffixArray, FirstName)'
p108
sg21
cdedupe.predicates
suffixArray
p109
sg23
g24
sbag0
(g14
g2
Ntp110
Rp111
(dp112
g18
I2068422274
sg19
S'(doubleMetaphone, FirstName)'
p113
sg21
cdedupe.predicates
doubleMetaphone
p114
sg23
g24
sbag0
(g14
g2
Ntp115
Rp116
(dp117
g18
I1896822857
sg19
S'(metaphoneToken, FirstName)'
p118
sg21
cdedupe.predicates
metaphoneToken
p119
sg23
g24
sbag0
(cdedupe.predicates
TfidfNGramCanopyPredicate
p120
g2
Ntp121
Rp122
(dp123
S'threshold'
p124
F0.2
sg19
S'(0.2, FirstName)'
p125
sg23
g24
sbag0
(g120
g2
Ntp126
Rp127
(dp128
g124
F0.4
sg19
S'(0.4, FirstName)'
p129
sg23
g24
sbag0
(g120
g2
Ntp130
Rp131
(dp132
g124
F0.6
sg19
S'(0.6, FirstName)'
p133
sg23
g24
sbag0
(g120
g2
Ntp134
Rp135
(dp136
g124
F0.8
sg19
S'(0.8, FirstName)'
p137
sg23
g24
sbag0
(cdedupe.predicates
TfidfNGramSearchPredicate
p138
g2
Ntp139
Rp140
(dp141
g124
F0.2
sg19
S'(0.2, FirstName)'
p142
sg23
g24
sbag0
(g138
g2
Ntp143
Rp144
(dp145
g124
F0.4
sg19
S'(0.4, FirstName)'
p146
sg23
g24
sbag0
(g138
g2
Ntp147
Rp148
(dp149
g124
F0.6
sg19
S'(0.6, FirstName)'
p150
sg23
g24
sbag0
(g138
g2
Ntp151
Rp152
(dp153
g124
F0.8
sg19
S'(0.8, FirstName)'
p154
sg23
g24
sbag0
(cdedupe.predicates
TfidfTextCanopyPredicate
p155
g2
Ntp156
Rp157
(dp158
g124
F0.2
sg19
S'(0.2, FirstName)'
p159
sg23
g24
sbag0
(g155
g2
Ntp160
Rp161
(dp162
g124
F0.4
sg19
S'(0.4, FirstName)'
p163
sg23
g24
sbag0
(g155
g2
Ntp164
Rp165
(dp166
g124
F0.6
sg19
S'(0.6, FirstName)'
p167
sg23
g24
sbag0
(g155
g2
Ntp168
Rp169
(dp170
g124
F0.8
sg19
S'(0.8, FirstName)'
p171
sg23
g24
sbag0
(cdedupe.predicates
TfidfTextSearchPredicate
p172
g2
Ntp173
Rp174
(dp175
g124
F0.2
sg19
S'(0.2, FirstName)'
p176
sg23
g24
sbag0
(g172
g2
Ntp177
Rp178
(dp179
g124
F0.4
sg19
S'(0.4, FirstName)'
p180
sg23
g24
sbag0
(g172
g2
Ntp181
Rp182
(dp183
g124
F0.6
sg19
S'(0.6, FirstName)'
p184
sg23
g24
sbag0
(g172
g2
Ntp185
Rp186
(dp187
g124
F0.8
sg19
S'(0.8, FirstName)'
p188
sg23
g24
sbag0
(cdedupe.predicates
LevenshteinCanopyPredicate
p189
g2
Ntp190
Rp191
(dp192
g124
I1
sg19
S'(1, FirstName)'
p193
sg23
g24
sbag0
(g189
g2
Ntp194
Rp195
(dp196
g124
I2
sg19
S'(2, FirstName)'
p197
sg23
g24
sbag0
(g189
g2
Ntp198
Rp199
(dp200
g124
I3
sg19
S'(3, FirstName)'
p201
sg23
g24
sbag0
(g189
g2
Ntp202
Rp203
(dp204
g124
I4
sg19
S'(4, FirstName)'
p205
sg23
g24
sbag0
(cdedupe.predicates
LevenshteinSearchPredicate
p206
g2
Ntp207
Rp208
(dp209
g124
I1
sg19
S'(1, FirstName)'
p210
sg23
g24
sbag0
(g206
g2
Ntp211
Rp212
(dp213
g124
I2
sg19
S'(2, FirstName)'
p214
sg23
g24
sbag0
(g206
g2
Ntp215
Rp216
(dp217
g124
I3
sg19
S'(3, FirstName)'
p218
sg23
g24
sbag0
(g206
g2
Ntp219
Rp220
(dp221
g124
I4
sg19
S'(4, FirstName)'
p222
sg23
g24
sbag0
(cdedupe.predicates
ExistsPredicate
p223
g2
Ntp224
Rp225
(dp226
g18
I1218401295
sg19
S'(Exists, FirstName)'
p227
sg23
g24
sbasg23
g24
sS'name'
p228
g24
sS'has_missing'
p229
I01
sS'comparator'
p230
caffinegap.affinegap
normalizedAffineGapDistance
p231
sbag0
(g8
g2
Ntp232
Rp233
(dp234
g12
(lp235
g0
(g14
g2
Ntp236
Rp237
(dp238
g18
I432265117
sg19
S'(wholeFieldPredicate, LastName)'
p239
sg21
g22
sg23
S'LastName'
p240
sbag0
(g14
g2
Ntp241
Rp242
(dp243
g18
I-897241365
sg19
S'(firstTokenPredicate, LastName)'
p244
sg21
g29
sg23
g240
sbag0
(g14
g2
Ntp245
Rp246
(dp247
g18
I-1251616640
sg19
S'(commonIntegerPredicate, LastName)'
p248
sg21
g34
sg23
g240
sbag0
(g14
g2
Ntp249
Rp250
(dp251
g18
I955876559
sg19
S'(nearIntegersPredicate, LastName)'
p252
sg21
g39
sg23
g240
sbag0
(g14
g2
Ntp253
Rp254
(dp255
g18
I-1604270772
sg19
S'(firstIntegerPredicate, LastName)'
p256
sg21
g44
sg23
g240
sbag0
(g14
g2
Ntp257
Rp258
(dp259
g18
I1538499804
sg19
S'(sameThreeCharStartPredicate, LastName)'
p260
sg21
g49
sg23
g240
sbag0
(g14
g2
Ntp261
Rp262
(dp263
g18
I-443392471
sg19
S'(sameFiveCharStartPredicate, LastName)'
p264
sg21
g54
sg23
g240
sbag0
(g14
g2
Ntp265
Rp266
(dp267
g18
I1049043133
sg19
S'(sameSevenCharStartPredicate, LastName)'
p268
sg21
g59
sg23
g240
sbag0
(g14
g2
Ntp269
Rp270
(dp271
g18
I864800928
sg19
S'(commonTwoTokens, LastName)'
p272
sg21
g64
sg23
g240
sbag0
(g14
g2
Ntp273
Rp274
(dp275
g18
I625239896
sg19
S'(commonThreeTokens, LastName)'
p276
sg21
g69
sg23
g240
sbag0
(g14
g2
Ntp277
Rp278
(dp279
g18
I-2037020765
sg19
S'(fingerprint, LastName)'
p280
sg21
g74
sg23
g240
sbag0
(g14
g2
Ntp281
Rp282
(dp283
g18
I-981304413
sg19
S'(oneGramFingerprint, LastName)'
p284
sg21
g79
sg23
g240
sbag0
(g14
g2
Ntp285
Rp286
(dp287
g18
I-1036714835
sg19
S'(twoGramFingerprint, LastName)'
p288
sg21
g84
sg23
g240
sbag0
(g14
g2
Ntp289
Rp290
(dp291
g18
I-1244407437
sg19
S'(sortedAcronym, LastName)'
p292
sg21
g89
sg23
g240
sbag0
(g14
g2
Ntp293
Rp294
(dp295
g18
I1146790528
sg19
S'(commonFourGram, LastName)'
p296
sg21
g94
sg23
g240
sbag0
(g14
g2
Ntp297
Rp298
(dp299
g18
I-401173375
sg19
S'(commonSixGram, LastName)'
p300
sg21
g99
sg23
g240
sbag0
(g14
g2
Ntp301
Rp302
(dp303
g18
I1499281643
sg19
S'(tokenFieldPredicate, LastName)'
p304
sg21
g104
sg23
g240
sbag0
(g14
g2
Ntp305
Rp306
(dp307
g18
I-1879953259
sg19
S'(suffixArray, LastName)'
p308
sg21
g109
sg23
g240
sbag0
(g14
g2
Ntp309
Rp310
(dp311
g18
I-854015165
sg19
S'(doubleMetaphone, LastName)'
p312
sg21
g114
sg23
g240
sbag0
(g14
g2
Ntp313
Rp314
(dp315
g18
I2010596818
sg19
S'(metaphoneToken, LastName)'
p316
sg21
g119
sg23
g240
sbag0
(g120
g2
Ntp317
Rp318
(dp319
g124
F0.2
sg19
S'(0.2, LastName)'
p320
sg23
g240
sbag0
(g120
g2
Ntp321
Rp322
(dp323
g124
F0.4
sg19
S'(0.4, LastName)'
p324
sg23
g240
sbag0
(g120
g2
Ntp325
Rp326
(dp327
g124
F0.6
sg19
S'(0.6, LastName)'
p328
sg23
g240
sbag0
(g120
g2
Ntp329
Rp330
(dp331
g124
F0.8
sg19
S'(0.8, LastName)'
p332
sg23
g240
sbag0
(g138
g2
Ntp333
Rp334
(dp335
g124
F0.2
sg19
S'(0.2, LastName)'
p336
sg23
g240
sbag0
(g138
g2
Ntp337
Rp338
(dp339
g124
F0.4
sg19
S'(0.4, LastName)'
p340
sg23
g240
sbag0
(g138
g2
Ntp341
Rp342
(dp343
g124
F0.6
sg19
S'(0.6, LastName)'
p344
sg23
g240
sbag0
(g138
g2
Ntp345
Rp346
(dp347
g124
F0.8
sg19
S'(0.8, LastName)'
p348
sg23
g240
sbag0
(g155
g2
Ntp349
Rp350
(dp351
g124
F0.2
sg19
S'(0.2, LastName)'
p352
sg23
g240
sbag0
(g155
g2
Ntp353
Rp354
(dp355
g124
F0.4
sg19
S'(0.4, LastName)'
p356
sg23
g240
sbag0
(g155
g2
Ntp357
Rp358
(dp359
g124
F0.6
sg19
S'(0.6, LastName)'
p360
sg23
g240
sbag0
(g155
g2
Ntp361
Rp362
(dp363
g124
F0.8
sg19
S'(0.8, LastName)'
p364
sg23
g240
sbag0
(g172
g2
Ntp365
Rp366
(dp367
g124
F0.2
sg19
S'(0.2, LastName)'
p368
sg23
g240
sbag0
(g172
g2
Ntp369
Rp370
(dp371
g124
F0.4
sg19
S'(0.4, LastName)'
p372
sg23
g240
sbag0
(g172
g2
Ntp373
Rp374
(dp375
g124
F0.6
sg19
S'(0.6, LastName)'
p376
sg23
g240
sbag0
(g172
g2
Ntp377
Rp378
(dp379
g124
F0.8
sg19
S'(0.8, LastName)'
p380
sg23
g240
sbag0
(g189
g2
Ntp381
Rp382
(dp383
g124
I1
sg19
S'(1, LastName)'
p384
sg23
g240
sbag0
(g189
g2
Ntp385
Rp386
(dp387
g124
I2
sg19
S'(2, LastName)'
p388
sg23
g240
sbag0
(g189
g2
Ntp389
Rp390
(dp391
g124
I3
sg19
S'(3, LastName)'
p392
sg23
g240
sbag0
(g189
g2
Ntp393
Rp394
(dp395
g124
I4
sg19
S'(4, LastName)'
p396
sg23
g240
sbag0
(g206
g2
Ntp397
Rp398
(dp399
g124
I1
sg19
S'(1, LastName)'
p400
sg23
g240
sbag0
(g206
g2
Ntp401
Rp402
(dp403
g124
I2
sg19
S'(2, LastName)'
p404
sg23
g240
sbag0
(g206
g2
Ntp405
Rp406
(dp407
g124
I3
sg19
S'(3, LastName)'
p408
sg23
g240
sbag0
(g206
g2
Ntp409
Rp410
(dp411
g124
I4
sg19
S'(4, LastName)'
p412
sg23
g240
sbag0
(g223
g2
Ntp413
Rp414
(dp415
g18
I-360058752
sg19
S'(Exists, LastName)'
p416
sg23
g240
sbasg23
g240
sg228
g240
sg229
I01
sg230
g231
sbag0
(g8
g2
Ntp417
Rp418
(dp419
g12
(lp420
g0
(g14
g2
Ntp421
Rp422
(dp423
g18
I1525089697
sg19
S'(wholeFieldPredicate, Email)'
p424
sg21
g22
sg23
S'Email'
p425
sbag0
(g14
g2
Ntp426
Rp427
(dp428
g18
I44551683
sg19
S'(firstTokenPredicate, Email)'
p429
sg21
g29
sg23
g425
sbag0
(g14
g2
Ntp430
Rp431
(dp432
g18
I154027046
sg19
S'(commonIntegerPredicate, Email)'
p433
sg21
g34
sg23
g425
sbag0
(g14
g2
Ntp434
Rp435
(dp436
g18
I-1557151533
sg19
S'(nearIntegersPredicate, Email)'
p437
sg21
g39
sg23
g425
sbag0
(g14
g2
Ntp438
Rp439
(dp440
g18
I1729765202
sg19
S'(firstIntegerPredicate, Email)'
p441
sg21
g44
sg23
g425
sbag0
(g14
g2
Ntp442
Rp443
(dp444
g18
I1473285914
sg19
S'(sameThreeCharStartPredicate, Email)'
p445
sg21
g49
sg23
g425
sbag0
(g14
g2
Ntp446
Rp447
(dp448
g18
I882844649
sg19
S'(sameFiveCharStartPredicate, Email)'
p449
sg21
g54
sg23
g425
sbag0
(g14
g2
Ntp450
Rp451
(dp452
g18
I-1206435135
sg19
S'(sameSevenCharStartPredicate, Email)'
p453
sg21
g59
sg23
g425
sbag0
(g14
g2
Ntp454
Rp455
(dp456
g18
I-558057938
sg19
S'(commonTwoTokens, Email)'
p457
sg21
g64
sg23
g425
sbag0
(g14
g2
Ntp458
Rp459
(dp460
g18
I1677461326
sg19
S'(commonThreeTokens, Email)'
p461
sg21
g69
sg23
g425
sbag0
(g14
g2
Ntp462
Rp463
(dp464
g18
I1127389275
sg19
S'(fingerprint, Email)'
p465
sg21
g74
sg23
g425
sbag0
(g14
g2
Ntp466
Rp467
(dp468
g18
I1480271659
sg19
S'(oneGramFingerprint, Email)'
p469
sg21
g79
sg23
g425
sbag0
(g14
g2
Ntp470
Rp471
(dp472
g18
I641749477
sg19
S'(twoGramFingerprint, Email)'
p473
sg21
g84
sg23
g425
sbag0
(g14
g2
Ntp474
Rp475
(dp476
g18
I842888887
sg19
S'(sortedAcronym, Email)'
p477
sg21
g89
sg23
g425
sbag0
(g14
g2
Ntp478
Rp479
(dp480
g18
I1781285366
sg19
S'(commonFourGram, Email)'
p481
sg21
g94
sg23
g425
sbag0
(g14
g2
Ntp482
Rp483
(dp484
g18
I977909753
sg19
S'(commonSixGram, Email)'
p485
sg21
g99
sg23
g425
sbag0
(g14
g2
Ntp486
Rp487
(dp488
g18
I-431420413
sg19
S'(tokenFieldPredicate, Email)'
p489
sg21
g104
sg23
g425
sbag0
(g14
g2
Ntp490
Rp491
(dp492
g18
I-50306919
sg19
S'(suffixArray, Email)'
p493
sg21
g109
sg23
g425
sbag0
(g14
g2
Ntp494
Rp495
(dp496
g18
I-1057006077
sg19
S'(doubleMetaphone, Email)'
p497
sg21
g114
sg23
g425
sbag0
(g14
g2
Ntp498
Rp499
(dp500
g18
I468998104
sg19
S'(metaphoneToken, Email)'
p501
sg21
g119
sg23
g425
sbag0
(g120
g2
Ntp502
Rp503
(dp504
g124
F0.2
sg19
S'(0.2, Email)'
p505
sg23
g425
sbag0
(g120
g2
Ntp506
Rp507
(dp508
g124
F0.4
sg19
S'(0.4, Email)'
p509
sg23
g425
sbag0
(g120
g2
Ntp510
Rp511
(dp512
g124
F0.6
sg19
S'(0.6, Email)'
p513
sg23
g425
sbag0
(g120
g2
Ntp514
Rp515
(dp516
g124
F0.8
sg19
S'(0.8, Email)'
p517
sg23
g425
sbag0
(g138
g2
Ntp518
Rp519
(dp520
g124
F0.2
sg19
S'(0.2, Email)'
p521
sg23
g425
sbag0
(g138
g2
Ntp522
Rp523
(dp524
g124
F0.4
sg19
S'(0.4, Email)'
p525
sg23
g425
sbag0
(g138
g2
Ntp526
Rp527
(dp528
g124
F0.6
sg19
S'(0.6, Email)'
p529
sg23
g425
sbag0
(g138
g2
Ntp530
Rp531
(dp532
g124
F0.8
sg19
S'(0.8, Email)'
p533
sg23
g425
sbag0
(g155
g2
Ntp534
Rp535
(dp536
g124
F0.2
sg19
S'(0.2, Email)'
p537
sg23
g425
sbag0
(g155
g2
Ntp538
Rp539
(dp540
g124
F0.4
sg19
S'(0.4, Email)'
p541
sg23
g425
sbag0
(g155
g2
Ntp542
Rp543
(dp544
g124
F0.6
sg19
S'(0.6, Email)'
p545
sg23
g425
sbag0
(g155
g2
Ntp546
Rp547
(dp548
g124
F0.8
sg19
S'(0.8, Email)'
p549
sg23
g425
sbag0
(g172
g2
Ntp550
Rp551
(dp552
g124
F0.2
sg19
S'(0.2, Email)'
p553
sg23
g425
sbag0
(g172
g2
Ntp554
Rp555
(dp556
g124
F0.4
sg19
S'(0.4, Email)'
p557
sg23
g425
sbag0
(g172
g2
Ntp558
Rp559
(dp560
g124
F0.6
sg19
S'(0.6, Email)'
p561
sg23
g425
sbag0
(g172
g2
Ntp562
Rp563
(dp564
g124
F0.8
sg19
S'(0.8, Email)'
p565
sg23
g425
sbag0
(g189
g2
Ntp566
Rp567
(dp568
g124
I1
sg19
S'(1, Email)'
p569
sg23
g425
sbag0
(g189
g2
Ntp570
Rp571
(dp572
g124
I2
sg19
S'(2, Email)'
p573
sg23
g425
sbag0
(g189
g2
Ntp574
Rp575
(dp576
g124
I3
sg19
S'(3, Email)'
p577
sg23
g425
sbag0
(g189
g2
Ntp578
Rp579
(dp580
g124
I4
sg19
S'(4, Email)'
p581
sg23
g425
sbag0
(g206
g2
Ntp582
Rp583
(dp584
g124
I1
sg19
S'(1, Email)'
p585
sg23
g425
sbag0
(g206
g2
Ntp586
Rp587
(dp588
g124
I2
sg19
S'(2, Email)'
p589
sg23
g425
sbag0
(g206
g2
Ntp590
Rp591
(dp592
g124
I3
sg19
S'(3, Email)'
p593
sg23
g425
sbag0
(g206
g2
Ntp594
Rp595
(dp596
g124
I4
sg19
S'(4, Email)'
p597
sg23
g425
sbag0
(g223
g2
Ntp598
Rp599
(dp600
g18
I-196367610
sg19
S'(Exists, Email)'
p601
sg23
g425
sbasg23
g425
sg228
g425
sg229
I01
sg230
g231
sbag0
(g8
g2
Ntp602
Rp603
(dp604
g12
(lp605
g0
(g14
g2
Ntp606
Rp607
(dp608
g18
I-1100001557
sg19
S'(wholeFieldPredicate, SchoolAffiliation)'
p609
sg21
g22
sg23
S'SchoolAffiliation'
p610
sbag0
(g14
g2
Ntp611
Rp612
(dp613
g18
I1698642421
sg19
S'(firstTokenPredicate, SchoolAffiliation)'
p614
sg21
g29
sg23
g610
sbag0
(g14
g2
Ntp615
Rp616
(dp617
g18
I1098540344
sg19
S'(commonIntegerPredicate, SchoolAffiliation)'
p618
sg21
g34
sg23
g610
sbag0
(g14
g2
Ntp619
Rp620
(dp621
g18
I-347857031
sg19
S'(nearIntegersPredicate, SchoolAffiliation)'
p622
sg21
g39
sg23
g610
sbag0
(g14
g2
Ntp623
Rp624
(dp625
g18
I-1859243700
sg19
S'(firstIntegerPredicate, SchoolAffiliation)'
p626
sg21
g44
sg23
g610
sbag0
(g14
g2
Ntp627
Rp628
(dp629
g18
I536016304
sg19
S'(sameThreeCharStartPredicate, SchoolAffiliation)'
p630
sg21
g49
sg23
g610
sbag0
(g14
g2
Ntp631
Rp632
(dp633
g18
I2144233047
sg19
S'(sameFiveCharStartPredicate, SchoolAffiliation)'
p634
sg21
g54
sg23
g610
sbag0
(g14
g2
Ntp635
Rp636
(dp637
g18
I-2145700469
sg19
S'(sameSevenCharStartPredicate, SchoolAffiliation)'
p638
sg21
g59
sg23
g610
sbag0
(g14
g2
Ntp639
Rp640
(dp641
g18
I-279636436
sg19
S'(commonTwoTokens, SchoolAffiliation)'
p642
sg21
g64
sg23
g610
sbag0
(g14
g2
Ntp643
Rp644
(dp645
g18
I-27228232
sg19
S'(commonThreeTokens, SchoolAffiliation)'
p646
sg21
g69
sg23
g610
sbag0
(g14
g2
Ntp647
Rp648
(dp649
g18
I-548973971
sg19
S'(fingerprint, SchoolAffiliation)'
p650
sg21
g74
sg23
g610
sbag0
(g14
g2
Ntp651
Rp652
(dp653
g18
I1506899745
sg19
S'(oneGramFingerprint, SchoolAffiliation)'
p654
sg21
g79
sg23
g610
sbag0
(g14
g2
Ntp655
Rp656
(dp657
g18
I-565691381
sg19
S'(twoGramFingerprint, SchoolAffiliation)'
p658
sg21
g84
sg23
g610
sbag0
(g14
g2
Ntp659
Rp660
(dp661
g18
I-939099387
sg19
S'(sortedAcronym, SchoolAffiliation)'
p662
sg21
g89
sg23
g610
sbag0
(g14
g2
Ntp663
Rp664
(dp665
g18
I459405512
sg19
S'(commonFourGram, SchoolAffiliation)'
p666
sg21
g94
sg23
g610
sbag0
(g14
g2
Ntp667
Rp668
(dp669
g18
I1445583
sg19
S'(commonSixGram, SchoolAffiliation)'
p670
sg21
g99
sg23
g610
sbag0
(g14
g2
Ntp671
Rp672
(dp673
g18
I698521589
sg19
S'(tokenFieldPredicate, SchoolAffiliation)'
p674
sg21
g104
sg23
g610
sbag0
(g14
g2
Ntp675
Rp676
(dp677
g18
I-524453581
sg19
S'(suffixArray, SchoolAffiliation)'
p678
sg21
g109
sg23
g610
sbag0
(g14
g2
Ntp679
Rp680
(dp681
g18
I-1472964963
sg19
S'(doubleMetaphone, SchoolAffiliation)'
p682
sg21
g114
sg23
g610
sbag0
(g14
g2
Ntp683
Rp684
(dp685
g18
I474542050
sg19
S'(metaphoneToken, SchoolAffiliation)'
p686
sg21
g119
sg23
g610
sbag0
(g120
g2
Ntp687
Rp688
(dp689
g124
F0.2
sg19
S'(0.2, SchoolAffiliation)'
p690
sg23
g610
sbag0
(g120
g2
Ntp691
Rp692
(dp693
g124
F0.4
sg19
S'(0.4, SchoolAffiliation)'
p694
sg23
g610
sbag0
(g120
g2
Ntp695
Rp696
(dp697
g124
F0.6
sg19
S'(0.6, SchoolAffiliation)'
p698
sg23
g610
sbag0
(g120
g2
Ntp699
Rp700
(dp701
g124
F0.8
sg19
S'(0.8, SchoolAffiliation)'
p702
sg23
g610
sbag0
(g138
g2
Ntp703
Rp704
(dp705
g124
F0.2
sg19
S'(0.2, SchoolAffiliation)'
p706
sg23
g610
sbag0
(g138
g2
Ntp707
Rp708
(dp709
g124
F0.4
sg19
S'(0.4, SchoolAffiliation)'
p710
sg23
g610
sbag0
(g138
g2
Ntp711
Rp712
(dp713
g124
F0.6
sg19
S'(0.6, SchoolAffiliation)'
p714
sg23
g610
sbag0
(g138
g2
Ntp715
Rp716
(dp717
g124
F0.8
sg19
S'(0.8, SchoolAffiliation)'
p718
sg23
g610
sbag0
(g155
g2
Ntp719
Rp720
(dp721
g124
F0.2
sg19
S'(0.2, SchoolAffiliation)'
p722
sg23
g610
sbag0
(g155
g2
Ntp723
Rp724
(dp725
g124
F0.4
sg19
S'(0.4, SchoolAffiliation)'
p726
sg23
g610
sbag0
(g155
g2
Ntp727
Rp728
(dp729
g124
F0.6
sg19
S'(0.6, SchoolAffiliation)'
p730
sg23
g610
sbag0
(g155
g2
Ntp731
Rp732
(dp733
g124
F0.8
sg19
S'(0.8, SchoolAffiliation)'
p734
sg23
g610
sbag0
(g172
g2
Ntp735
Rp736
(dp737
g124
F0.2
sg19
S'(0.2, SchoolAffiliation)'
p738
sg23
g610
sbag0
(g172
g2
Ntp739
Rp740
(dp741
g124
F0.4
sg19
S'(0.4, SchoolAffiliation)'
p742
sg23
g610
sbag0
(g172
g2
Ntp743
Rp744
(dp745
g124
F0.6
sg19
S'(0.6, SchoolAffiliation)'
p746
sg23
g610
sbag0
(g172
g2
Ntp747
Rp748
(dp749
g124
F0.8
sg19
S'(0.8, SchoolAffiliation)'
p750
sg23
g610
sbag0
(g189
g2
Ntp751
Rp752
(dp753
g124
I1
sg19
S'(1, SchoolAffiliation)'
p754
sg23
g610
sbag0
(g189
g2
Ntp755
Rp756
(dp757
g124
I2
sg19
S'(2, SchoolAffiliation)'
p758
sg23
g610
sbag0
(g189
g2
Ntp759
Rp760
(dp761
g124
I3
sg19
S'(3, SchoolAffiliation)'
p762
sg23
g610
sbag0
(g189
g2
Ntp763
Rp764
(dp765
g124
I4
sg19
S'(4, SchoolAffiliation)'
p766
sg23
g610
sbag0
(g206
g2
Ntp767
Rp768
(dp769
g124
I1
sg19
S'(1, SchoolAffiliation)'
p770
sg23
g610
sbag0
(g206
g2
Ntp771
Rp772
(dp773
g124
I2
sg19
S'(2, SchoolAffiliation)'
p774
sg23
g610
sbag0
(g206
g2
Ntp775
Rp776
(dp777
g124
I3
sg19
S'(3, SchoolAffiliation)'
p778
sg23
g610
sbag0
(g206
g2
Ntp779
Rp780
(dp781
g124
I4
sg19
S'(4, SchoolAffiliation)'
p782
sg23
g610
sbag0
(g223
g2
Ntp783
Rp784
(dp785
g18
I1614129336
sg19
S'(Exists, SchoolAffiliation)'
p786
sg23
g610
sbasg23
g610
sg228
g610
sg229
I01
sg230
g231
sbag0
(g8
g2
Ntp787
Rp788
(dp789
g12
(lp790
g0
(g14
g2
Ntp791
Rp792
(dp793
g18
I-1441100908
sg19
S'(wholeFieldPredicate, DepartmentalAffiliation)'
p794
sg21
g22
sg23
S'DepartmentalAffiliation'
p795
sbag0
(g14
g2
Ntp796
Rp797
(dp798
g18
I219230218
sg19
S'(firstTokenPredicate, DepartmentalAffiliation)'
p799
sg21
g29
sg23
g795
sbag0
(g14
g2
Ntp800
Rp801
(dp802
g18
I-718279329
sg19
S'(commonIntegerPredicate, DepartmentalAffiliation)'
p803
sg21
g34
sg23
g795
sbag0
(g14
g2
Ntp804
Rp805
(dp806
g18
I1691213818
sg19
S'(nearIntegersPredicate, DepartmentalAffiliation)'
p807
sg21
g39
sg23
g795
sbag0
(g14
g2
Ntp808
Rp809
(dp810
g18
I1874867807
sg19
S'(firstIntegerPredicate, DepartmentalAffiliation)'
p811
sg21
g44
sg23
g795
sbag0
(g14
g2
Ntp812
Rp813
(dp814
g18
I-40499857
sg19
S'(sameThreeCharStartPredicate, DepartmentalAffiliation)'
p815
sg21
g49
sg23
g795
sbag0
(g14
g2
Ntp816
Rp817
(dp818
g18
I1037321080
sg19
S'(sameFiveCharStartPredicate, DepartmentalAffiliation)'
p819
sg21
g54
sg23
g795
sbag0
(g14
g2
Ntp820
Rp821
(dp822
g18
I-1371427884
sg19
S'(sameSevenCharStartPredicate, DepartmentalAffiliation)'
p823
sg21
g59
sg23
g795
sbag0
(g14
g2
Ntp824
Rp825
(dp826
g18
I131196379
sg19
S'(commonTwoTokens, DepartmentalAffiliation)'
p827
sg21
g64
sg23
g795
sbag0
(g14
g2
Ntp828
Rp829
(dp830
g18
I461109243
sg19
S'(commonThreeTokens, DepartmentalAffiliation)'
p831
sg21
g69
sg23
g795
sbag0
(g14
g2
Ntp832
Rp833
(dp834
g18
I-1788513006
sg19
S'(fingerprint, DepartmentalAffiliation)'
p835
sg21
g74
sg23
g795
sbag0
(g14
g2
Ntp836
Rp837
(dp838
g18
I410164958
sg19
S'(oneGramFingerprint, DepartmentalAffiliation)'
p839
sg21
g79
sg23
g795
sbag0
(g14
g2
Ntp840
Rp841
(dp842
g18
I-407014948
sg19
S'(twoGramFingerprint, DepartmentalAffiliation)'
p843
sg21
g84
sg23
g795
sbag0
(g14
g2
Ntp844
Rp845
(dp846
g18
I-1195034642
sg19
S'(sortedAcronym, DepartmentalAffiliation)'
p847
sg21
g89
sg23
g795
sbag0
(g14
g2
Ntp848
Rp849
(dp850
g18
I865363967
sg19
S'(commonFourGram, DepartmentalAffiliation)'
p851
sg21
g94
sg23
g795
sbag0
(g14
g2
Ntp852
Rp853
(dp854
g18
I737283580
sg19
S'(commonSixGram, DepartmentalAffiliation)'
p855
sg21
g99
sg23
g795
sbag0
(g14
g2
Ntp856
Rp857
(dp858
g18
I423026186
sg19
S'(tokenFieldPredicate, DepartmentalAffiliation)'
p859
sg21
g104
sg23
g795
sbag0
(g14
g2
Ntp860
Rp861
(dp862
g18
I812980812
sg19
S'(suffixArray, DepartmentalAffiliation)'
p863
sg21
g109
sg23
g795
sbag0
(g14
g2
Ntp864
Rp865
(dp866
g18
I1099361666
sg19
S'(doubleMetaphone, DepartmentalAffiliation)'
p867
sg21
g114
sg23
g795
sbag0
(g14
g2
Ntp868
Rp869
(dp870
g18
I-1429898035
sg19
S'(metaphoneToken, DepartmentalAffiliation)'
p871
sg21
g119
sg23
g795
sbag0
(g120
g2
Ntp872
Rp873
(dp874
g124
F0.2
sg19
S'(0.2, DepartmentalAffiliation)'
p875
sg23
g795
sbag0
(g120
g2
Ntp876
Rp877
(dp878
g124
F0.4
sg19
S'(0.4, DepartmentalAffiliation)'
p879
sg23
g795
sbag0
(g120
g2
Ntp880
Rp881
(dp882
g124
F0.6
sg19
S'(0.6, DepartmentalAffiliation)'
p883
sg23
g795
sbag0
(g120
g2
Ntp884
Rp885
(dp886
g124
F0.8
sg19
S'(0.8, DepartmentalAffiliation)'
p887
sg23
g795
sbag0
(g138
g2
Ntp888
Rp889
(dp890
g124
F0.2
sg19
S'(0.2, DepartmentalAffiliation)'
p891
sg23
g795
sbag0
(g138
g2
Ntp892
Rp893
(dp894
g124
F0.4
sg19
S'(0.4, DepartmentalAffiliation)'
p895
sg23
g795
sbag0
(g138
g2
Ntp896
Rp897
(dp898
g124
F0.6
sg19
S'(0.6, DepartmentalAffiliation)'
p899
sg23
g795
sbag0
(g138
g2
Ntp900
Rp901
(dp902
g124
F0.8
sg19
S'(0.8, DepartmentalAffiliation)'
p903
sg23
g795
sbag0
(g155
g2
Ntp904
Rp905
(dp906
g124
F0.2
sg19
S'(0.2, DepartmentalAffiliation)'
p907
sg23
g795
sbag0
(g155
g2
Ntp908
Rp909
(dp910
g124
F0.4
sg19
S'(0.4, DepartmentalAffiliation)'
p911
sg23
g795
sbag0
(g155
g2
Ntp912
Rp913
(dp914
g124
F0.6
sg19
S'(0.6, DepartmentalAffiliation)'
p915
sg23
g795
sbag0
(g155
g2
Ntp916
Rp917
(dp918
g124
F0.8
sg19
S'(0.8, DepartmentalAffiliation)'
p919
sg23
g795
sbag0
(g172
g2
Ntp920
Rp921
(dp922
g124
F0.2
sg19
S'(0.2, DepartmentalAffiliation)'
p923
sg23
g795
sbag0
(g172
g2
Ntp924
Rp925
(dp926
g124
F0.4
sg19
S'(0.4, DepartmentalAffiliation)'
p927
sg23
g795
sbag0
(g172
g2
Ntp928
Rp929
(dp930
g124
F0.6
sg19
S'(0.6, DepartmentalAffiliation)'
p931
sg23
g795
sbag0
(g172
g2
Ntp932
Rp933
(dp934
g124
F0.8
sg19
S'(0.8, DepartmentalAffiliation)'
p935
sg23
g795
sbag0
(g189
g2
Ntp936
Rp937
(dp938
g124
I1
sg19
S'(1, DepartmentalAffiliation)'
p939
sg23
g795
sbag0
(g189
g2
Ntp940
Rp941
(dp942
g124
I2
sg19
S'(2, DepartmentalAffiliation)'
p943
sg23
g795
sbag0
(g189
g2
Ntp944
Rp945
(dp946
g124
I3
sg19
S'(3, DepartmentalAffiliation)'
p947
sg23
g795
sbag0
(g189
g2
Ntp948
Rp949
(dp950
g124
I4
sg19
S'(4, DepartmentalAffiliation)'
p951
sg23
g795
sbag0
(g206
g2
Ntp952
Rp953
(dp954
g124
I1
sg19
S'(1, DepartmentalAffiliation)'
p955
sg23
g795
sbag0
(g206
g2
Ntp956
Rp957
(dp958
g124
I2
sg19
S'(2, DepartmentalAffiliation)'
p959
sg23
g795
sbag0
(g206
g2
Ntp960
Rp961
(dp962
g124
I3
sg19
S'(3, DepartmentalAffiliation)'
p963
sg23
g795
sbag0
(g206
g2
Ntp964
Rp965
(dp966
g124
I4
sg19
S'(4, DepartmentalAffiliation)'
p967
sg23
g795
sbag0
(g223
g2
Ntp968
Rp969
(dp970
g18
I550663295
sg19
S'(Exists, DepartmentalAffiliation)'
p971
sg23
g795
sbasg23
g795
sg228
g795
sg229
I01
sg230
g231
sbasS'_variables'
p972
(lp973
g10
ag233
ag418
ag603
ag788
ag0
(cdedupe.variables.base
MissingDataType
p974
g2
Ntp975
Rp976
(dp977
g228
S'(FirstName: Not Missing)'
p978
sg229
I00
sbag0
(g974
g2
Ntp979
Rp980
(dp981
g228
S'(LastName: Not Missing)'
p982
sg229
I00
sbag0
(g974
g2
Ntp983
Rp984
(dp985
g228
S'(Email: Not Missing)'
p986
sg229
I00
sbag0
(g974
g2
Ntp987
Rp988
(dp989
g228
S'(SchoolAffiliation: Not Missing)'
p990
sg229
I00
sbag0
(g974
g2
Ntp991
Rp992
(dp993
g228
S'(DepartmentalAffiliation: Not Missing)'
p994
sg229
I00
sbasS'_missing_field_indices'
p995
(lp996
I0
aI1
aI2
aI3
aI4
asS'_derived_start'
p997
I5
sS'_interaction_indices'
p998
(lp999
sb.ccopy_reg
_reconstructor
p0
(crlr.lr
RegularizedLogisticRegression
p1
c__builtin__
object
p2
Ntp3
Rp4
(dp5
S'alpha'
p6
F1e-05
sS'bias'
p7
cnumpy.core.multiarray
scalar
p8
(cnumpy
dtype
p9
(S'f8'
p10
I0
I1
tp11
Rp12
(I3
S'<'
p13
NNNI-1
I-1
I0
tp14
bS'\x97\xb9\x0b\xd2\xdc\x018@'
p15
tp16
Rp17
sS'num_cores'
p18
I0
sS'cv'
p19
I3
sS'weights'
p20
cnumpy.core.multiarray
_reconstruct
p21
(cnumpy
ndarray
p22
(I0
tp23
S'b'
p24
tp25
Rp26
(I1
(I10
tp27
g12
I00
S'b!\x9f\xb7\x9f?\x1e\xc0\xa1\x98\xdf\x0fa\xe4\x19\xc0n\xffJ\xf4,\x83!\xc0\xf6\x1c\xad\xaf\xf8\xf4\xf0\xbf\xf6\x1c\xad\xaf\xf8\xf4\xf0\xbf\x0e\x87\x01\xaf-Y\xc7\xbf\x0e\x87\x01\xaf-Y\xc7\xbf\x0e\x87\x01\xaf-Y\xc7\xbf\x86\xc7\xf1l\xbf\xe6\xc8\xbf\x86\xc7\xf1l\xbf\xe6\xc8\xbf'
p28
tp29
bsb.(ccopy_reg
_reconstructor
p0
(cdedupe.predicates
CompoundPredicate
p1
c__builtin__
tuple
p2
(g0
(cdedupe.predicates
StringPredicate
p3
c__builtin__
object
p4
Ntp5
Rp6
(dp7
S'_cached_hash'
p8
I641749477
sS'__name__'
p9
S'(twoGramFingerprint, Email)'
p10
sS'func'
p11
cdedupe.predicates
twoGramFingerprint
p12
sS'field'
p13
S'Email'
p14
sbg0
(g3
g4
Ntp15
Rp16
(dp17
g8
I-2013089316
sg9
S'(twoGramFingerprint, FirstName)'
p18
sg11
g12
sg13
S'FirstName'
p19
sbtp20
tp21
Rp22
tp23
.